target datalayout = "e-m:e-p270:32:32-p271:32:32-p272:64:64-i64:64-i128:128-f80:128-n8:16:32:64-S128"
target triple = "x86_64-pc-linux-gnu"

%"class.glslang::TQualifier" = type <{ ptr, i64, i8, [3 x i8], i32, i32, i64, i64, i8, i8, i8, i8, i8, [3 x i8], i32, i8, i8, i8, i8, i32, ptr, i8, i8, [6 x i8] }>

; Function Attrs: mustprogress nounwind uwtable
define noundef zeroext i1 @_ZN7glslang11HlslGrammar19acceptPostQualifierERNS_10TQualifierE(ptr noundef nonnull align 8 dereferenceable(360) %0, ptr noundef nonnull align 8 dereferenceable(80) %1) #0 align 2 {
  %3 = alloca ptr, align 8
  %4 = alloca ptr, align 8
  store ptr %0, ptr %3, align 8
  store ptr %1, ptr %4, align 8
  %5 = load ptr, ptr %3, align 8
  br label %6

6:                                                ; preds = %16, %2
  %7 = call noundef i32 @_ZNK7glslang15HlslTokenStream4peekEv(ptr noundef nonnull align 8 dereferenceable(324) %5)
  switch i32 %7, label %14 [
    i32 2, label %8
  ]

8:                                                ; preds = %6
  %9 = load ptr, ptr %4, align 8
  %10 = getelementptr inbounds %"class.glslang::TQualifier", ptr %9, i32 0, i32 1
  %11 = load i64, ptr %10, align 8
  %12 = and i64 %11, -128
  %13 = or i64 %12, 2
  store i64 %13, ptr %10, align 8
  br label %15

14:                                               ; preds = %6
  ret i1 true

15:                                               ; preds = %8
  call void @_ZN7glslang15HlslTokenStream12advanceTokenEv(ptr noundef nonnull align 8 dereferenceable(324) %5)
  br label %16

16:                                               ; preds = %15
  br i1 true, label %6, label %17, !llvm.loop !17

17:                                               ; preds = %16
  call void @llvm.trap()
  unreachable
}