; Function Attrs: mustprogress nounwind uwtable
define noundef zeroext i1 @_ZN7glslang11HlslGrammar19acceptPostQualifierERNS_10TQualifierE(ptr noundef nonnull align 8 dereferenceable(360) %0, ptr nocapture noundef nonnull align 8 dereferenceable(80) %1) local_unnamed_addr #0 align 2 {
  %3 = tail call noundef i32 @_ZNK7glslang15HlslTokenStream4peekEv(ptr noundef nonnull align 8 dereferenceable(324) %0) #16
  %cond2 = icmp eq i32 %3, 2
  br i1 %cond2, label %.lr.ph, label %._crit_edge

.lr.ph:                                           ; preds = %2
  %4 = getelementptr inbounds i8, ptr %1, i64 8
  br label %5

5:                                                ; preds = %.lr.ph, %5
  %6 = load i64, ptr %4, align 8
  %7 = and i64 %6, -128
  %8 = or disjoint i64 %7, 2
  store i64 %8, ptr %4, align 8
  tail call void @_ZN7glslang15HlslTokenStream12advanceTokenEv(ptr noundef nonnull align 8 dereferenceable(324) %0) #16
  %9 = tail call noundef i32 @_ZNK7glslang15HlslTokenStream4peekEv(ptr noundef nonnull align 8 dereferenceable(324) %0) #16
  %cond = icmp eq i32 %9, 2
  br i1 %cond, label %5, label %._crit_edge, !llvm.loop !19

._crit_edge:                                      ; preds = %5, %2
  ret i1 true
}